; Function Attrs: mustprogress nounwind willreturn uwtable
define dso_local void @cmsysProcess_SetPipeShared(ptr noundef %0, i32 noundef %1, i32 noundef %2) local_unnamed_addr #5 {
  %.not = icmp eq ptr %0, null
  br i1 %.not, label %cmsysProcess_SetPipeNative.exit, label %4

4:                                                ; preds = %3
  switch i32 %1, label %cmsysProcess_SetPipeNative.exit [
    i32 1, label %5
    i32 2, label %8
    i32 3, label %11
  ]

5:                                                ; preds = %4
  %.not14 = icmp ne i32 %2, 0
  %6 = zext i1 %.not14 to i32
  %7 = getelementptr inbounds nuw i8, ptr %0, i64 2368
  store i32 %6, ptr %7, align 8, !tbaa !4
  br label %14

8:                                                ; preds = %4
  %.not13 = icmp ne i32 %2, 0
  %9 = zext i1 %.not13 to i32
  %10 = getelementptr inbounds nuw i8, ptr %0, i64 2372
  store i32 %9, ptr %10, align 4, !tbaa !42
  br label %14

11:                                               ; preds = %4
  %.not12 = icmp ne i32 %2, 0
  %12 = zext i1 %.not12 to i32
  %13 = getelementptr inbounds nuw i8, ptr %0, i64 2376
  store i32 %12, ptr %13, align 8, !tbaa !43
  br label %14

14:                                               ; preds = %11, %8, %5
  %.not15 = icmp eq i32 %2, 0
  br i1 %.not15, label %cmsysProcess_SetPipeNative.exit, label %switch.lookup

switch.lookup:                                    ; preds = %14
  %switch.tableidx = add nsw i32 %1, -1
  %switch.idx.cast = zext i32 %switch.tableidx to i64
  %switch.idx.mult = shl nuw nsw i64 %switch.idx.cast, 3
  %15 = getelementptr inbounds nuw i8, ptr %0, i64 %switch.idx.mult
  %16 = getelementptr inbounds nuw i8, ptr %15, i64 2344
  %17 = load ptr, ptr %16, align 8, !tbaa !26
  %.not21.i = icmp eq ptr %17, null
  br i1 %.not21.i, label %cmsysProcess_SetPipeFile.exit, label %18

18:                                               ; preds = %switch.lookup
  tail call void @free(ptr noundef nonnull %17) #25
  store ptr null, ptr %16, align 8, !tbaa !26
  br label %cmsysProcess_SetPipeFile.exit

cmsysProcess_SetPipeFile.exit:                    ; preds = %18, %switch.lookup
  %switch.tableidx19 = add nsw i32 %1, -1
  %switch.idx.cast20 = zext i32 %switch.tableidx19 to i64
  %switch.idx.mult21 = shl nuw nsw i64 %switch.idx.cast20, 3
  %19 = getelementptr inbounds nuw i8, ptr %0, i64 %switch.idx.mult21
  %20 = getelementptr inbounds nuw i8, ptr %19, i64 2380
  store i32 -1, ptr %20, align 4, !tbaa !35
  %21 = getelementptr inbounds nuw i8, ptr %19, i64 2384
  store i32 -1, ptr %21, align 4, !tbaa !35
  br label %cmsysProcess_SetPipeNative.exit

cmsysProcess_SetPipeNative.exit:                  ; preds = %cmsysProcess_SetPipeFile.exit, %4, %3, %14
  ret void
}